target datalayout = "e-m:e-p270:32:32-p271:32:32-p272:64:64-i64:64-i128:128-f80:128-n8:16:32:64-S128"
target triple = "x86_64-pc-linux-gnu"

%struct.Vec_Int_t_ = type { i32, i32, ptr }
%struct.Mf_Man_t_ = type { ptr, ptr, ptr, ptr, %struct.Vec_Ptr_t_, ptr, %struct.Vec_Int_t_, %struct.Vec_Int_t_, %struct.Vec_Int_t_, i32, i32, i32, i64, [4 x double], [11 x i32] }
%struct.Vec_Ptr_t_ = type { i32, i32, ptr }
%struct.Gia_Man_t_ = type { ptr, ptr, i32, i32, i32, i32, ptr, ptr, i32, i32, i32, ptr, ptr, %struct.Vec_Int_t_, %struct.Vec_Int_t_, i32, i32, i32, %struct.Vec_Int_t_, ptr, ptr, ptr, i32, i32, i32, i32, ptr, ptr, ptr, ptr, ptr, i32, i32, ptr, i32, ptr, ptr, ptr, ptr, ptr, ptr, ptr, ptr, ptr, ptr, ptr, ptr, ptr, ptr, ptr, ptr, ptr, ptr, %struct.Vec_Int_t_, %struct.Vec_Int_t_, ptr, ptr, ptr, ptr, ptr, ptr, ptr, ptr, ptr, ptr, ptr, ptr, ptr, ptr, ptr, ptr, ptr, ptr, ptr, ptr, ptr, i32, float, float, ptr, ptr, i32, ptr, ptr, ptr, ptr, ptr, ptr, ptr, ptr, ptr, ptr, ptr, ptr, ptr, ptr, ptr, i64, i64, ptr, ptr, i32, i32, i32, i32, i32, i32, i32, i32, i32, i32, i32, i32, ptr, ptr, ptr, ptr, ptr, ptr, ptr, ptr, i32, i32, i32, ptr, i32, i32, ptr, ptr, ptr, ptr, ptr, ptr, i32, i32, ptr, %struct.Vec_Int_t_, %struct.Vec_Int_t_, %struct.Vec_Int_t_, ptr, ptr, ptr, i32, i32, i32, i32, ptr, ptr, ptr, ptr, ptr }
%struct.Gia_Obj_t_ = type <{ i64, i32 }>

@.str.51 = private unnamed_addr constant [52 x i8] c"\0AIndividual logic cones for mapping with %d nodes:\0A\00", align 1
@.str.52 = private unnamed_addr constant [44 x i8] c"\0AFinished printing individual logic cones.\0A\00", align 1

; Function Attrs: inlinehint nounwind uwtable
define internal void @Vec_IntFreeP(ptr noundef %0) #2 {
  %2 = alloca ptr, align 8
  store ptr %0, ptr %2, align 8, !tbaa !220
  %3 = load ptr, ptr %2, align 8, !tbaa !220
  %4 = load ptr, ptr %3, align 8, !tbaa !39
  %5 = icmp eq ptr %4, null
  br i1 %5, label %6, label %7

6:                                                ; preds = %1
  br label %32

7:                                                ; preds = %1
  %8 = load ptr, ptr %2, align 8, !tbaa !220
  %9 = load ptr, ptr %8, align 8, !tbaa !39
  %10 = getelementptr inbounds nuw %struct.Vec_Int_t_, ptr %9, i32 0, i32 2
  %11 = load ptr, ptr %10, align 8, !tbaa !73
  %12 = icmp ne ptr %11, null
  br i1 %12, label %13, label %21

13:                                               ; preds = %7
  %14 = load ptr, ptr %2, align 8, !tbaa !220
  %15 = load ptr, ptr %14, align 8, !tbaa !39
  %16 = getelementptr inbounds nuw %struct.Vec_Int_t_, ptr %15, i32 0, i32 2
  %17 = load ptr, ptr %16, align 8, !tbaa !73
  call void @free(ptr noundef %17) #14
  %18 = load ptr, ptr %2, align 8, !tbaa !220
  %19 = load ptr, ptr %18, align 8, !tbaa !39
  %20 = getelementptr inbounds nuw %struct.Vec_Int_t_, ptr %19, i32 0, i32 2
  store ptr null, ptr %20, align 8, !tbaa !73
  br label %22

21:                                               ; preds = %7
  br label %22

22:                                               ; preds = %21, %13
  %23 = load ptr, ptr %2, align 8, !tbaa !220
  %24 = load ptr, ptr %23, align 8, !tbaa !39
  %25 = icmp ne ptr %24, null
  br i1 %25, label %26, label %30

26:                                               ; preds = %22
  %27 = load ptr, ptr %2, align 8, !tbaa !220
  %28 = load ptr, ptr %27, align 8, !tbaa !39
  call void @free(ptr noundef %28) #14
  %29 = load ptr, ptr %2, align 8, !tbaa !220
  store ptr null, ptr %29, align 8, !tbaa !39
  br label %31

30:                                               ; preds = %22
  br label %31

31:                                               ; preds = %30, %26
  br label %32

32:                                               ; preds = %31, %6
  ret void
}

; Function Attrs: inlinehint nounwind uwtable
define internal i32 @Gia_ObjIsAnd(ptr noundef %0) #2 {
  %2 = alloca ptr, align 8
  store ptr %0, ptr %2, align 8, !tbaa !74
  %3 = load ptr, ptr %2, align 8, !tbaa !74
  %4 = load i64, ptr %3, align 4
  %5 = lshr i64 %4, 31
  %6 = and i64 %5, 1
  %7 = trunc i64 %6 to i32
  %8 = icmp ne i32 %7, 0
  br i1 %8, label %15, label %9

9:                                                ; preds = %1
  %10 = load ptr, ptr %2, align 8, !tbaa !74
  %11 = load i64, ptr %10, align 4
  %12 = and i64 %11, 536870911
  %13 = trunc i64 %12 to i32
  %14 = icmp ne i32 %13, 536870911
  br label %15

15:                                               ; preds = %9, %1
  %16 = phi i1 [ false, %1 ], [ %14, %9 ]
  %17 = zext i1 %16 to i32
  ret i32 %17
}

; Function Attrs: inlinehint nounwind uwtable
define internal ptr @Gia_ManObj(ptr noundef %0, i32 noundef %1) #2 {
  %3 = alloca ptr, align 8
  %4 = alloca i32, align 4
  store ptr %0, ptr %3, align 8, !tbaa !75
  store i32 %1, ptr %4, align 4, !tbaa !8
  %5 = load ptr, ptr %3, align 8, !tbaa !75
  %6 = getelementptr inbounds nuw %struct.Gia_Man_t_, ptr %5, i32 0, i32 6
  %7 = load ptr, ptr %6, align 8, !tbaa !76
  %8 = load i32, ptr %4, align 4, !tbaa !8
  %9 = sext i32 %8 to i64
  %10 = getelementptr inbounds %struct.Gia_Obj_t_, ptr %7, i64 %9
  ret ptr %10
}

; Function Attrs: inlinehint nounwind uwtable
define internal i32 @Vec_IntEntry(ptr noundef %0, i32 noundef %1) #2 {
  %3 = alloca ptr, align 8
  %4 = alloca i32, align 4
  store ptr %0, ptr %3, align 8, !tbaa !39
  store i32 %1, ptr %4, align 4, !tbaa !8
  %5 = load ptr, ptr %3, align 8, !tbaa !39
  %6 = getelementptr inbounds nuw %struct.Vec_Int_t_, ptr %5, i32 0, i32 2
  %7 = load ptr, ptr %6, align 8, !tbaa !73
  %8 = load i32, ptr %4, align 4, !tbaa !8
  %9 = sext i32 %8 to i64
  %10 = getelementptr inbounds i32, ptr %7, i64 %9
  %11 = load i32, ptr %10, align 4, !tbaa !8
  ret i32 %11
}

; Function Attrs: inlinehint nounwind uwtable
define internal i32 @Vec_IntSize(ptr noundef %0) #2 {
  %2 = alloca ptr, align 8
  store ptr %0, ptr %2, align 8, !tbaa !39
  %3 = load ptr, ptr %2, align 8, !tbaa !39
  %4 = getelementptr inbounds nuw %struct.Vec_Int_t_, ptr %3, i32 0, i32 1
  %5 = load i32, ptr %4, align 4, !tbaa !40
  ret i32 %5
}

; Function Attrs: nounwind uwtable
define void @Mf_ManOptimization(ptr noundef %0) #0 {
  %2 = alloca ptr, align 8
  %3 = alloca i32, align 4
  %4 = alloca ptr, align 8
  %5 = alloca i32, align 4
  %6 = alloca i32, align 4
  %7 = alloca i32, align 4
  store ptr %0, ptr %2, align 8, !tbaa !43
  call void @llvm.lifetime.start.p0(i64 4, ptr %3) #14
  store i32 3, ptr %3, align 4, !tbaa !8
  call void @llvm.lifetime.start.p0(i64 8, ptr %4) #14
  %8 = load ptr, ptr %2, align 8, !tbaa !43
  %9 = getelementptr inbounds nuw %struct.Mf_Man_t_, ptr %8, i32 0, i32 0
  %10 = load ptr, ptr %9, align 8, !tbaa !121
  store ptr %10, ptr %4, align 8, !tbaa !75
  call void @llvm.lifetime.start.p0(i64 4, ptr %5) #14
  call void @llvm.lifetime.start.p0(i64 4, ptr %6) #14
  call void @llvm.lifetime.start.p0(i64 4, ptr %7) #14
  %11 = load ptr, ptr %2, align 8, !tbaa !43
  %12 = call i32 @Mf_ManMappingFromMapping(ptr noundef %11)
  store i32 %12, ptr %7, align 4, !tbaa !8
  %13 = load ptr, ptr %4, align 8, !tbaa !75
  %14 = call i32 @Gia_ManLevelNum(ptr noundef %13)
  %15 = load ptr, ptr %4, align 8, !tbaa !75
  call void @Gia_ManStaticMappingFanoutStart(ptr noundef %15, ptr noundef null)
  %16 = load ptr, ptr %2, align 8, !tbaa !43
  %17 = load ptr, ptr %4, align 8, !tbaa !75
  %18 = getelementptr inbounds nuw %struct.Gia_Man_t_, ptr %17, i32 0, i32 35
  %19 = load ptr, ptr %18, align 8, !tbaa !264
  call void @Mf_ManPrintFanoutProfile(ptr noundef %16, ptr noundef %19)
  %20 = load i32, ptr %7, align 4, !tbaa !8
  %21 = call i32 (ptr, ...) @printf(ptr noundef @.str.51, i32 noundef %20)
  store i32 0, ptr %5, align 4, !tbaa !8
  br label %22

22:                                               ; preds = %54, %1
  %23 = load i32, ptr %5, align 4, !tbaa !8
  %24 = load ptr, ptr %4, align 8, !tbaa !75
  %25 = getelementptr inbounds nuw %struct.Gia_Man_t_, ptr %24, i32 0, i32 35
  %26 = load ptr, ptr %25, align 8, !tbaa !264
  %27 = call i32 @Vec_IntSize(ptr noundef %26)
  %28 = icmp slt i32 %23, %27
  br i1 %28, label %29, label %35

29:                                               ; preds = %22
  %30 = load ptr, ptr %4, align 8, !tbaa !75
  %31 = getelementptr inbounds nuw %struct.Gia_Man_t_, ptr %30, i32 0, i32 35
  %32 = load ptr, ptr %31, align 8, !tbaa !264
  %33 = load i32, ptr %5, align 4, !tbaa !8
  %34 = call i32 @Vec_IntEntry(ptr noundef %32, i32 noundef %33)
  store i32 %34, ptr %6, align 4, !tbaa !8
  br label %35

35:                                               ; preds = %29, %22
  %36 = phi i1 [ false, %22 ], [ true, %29 ]
  br i1 %36, label %37, label %57

37:                                               ; preds = %35
  %38 = load i32, ptr %6, align 4, !tbaa !8
  %39 = icmp sge i32 %38, 2
  br i1 %39, label %40, label %53

40:                                               ; preds = %37
  %41 = load i32, ptr %6, align 4, !tbaa !8
  %42 = load i32, ptr %3, align 4, !tbaa !8
  %43 = icmp sle i32 %41, %42
  br i1 %43, label %44, label %53

44:                                               ; preds = %40
  %45 = load ptr, ptr %4, align 8, !tbaa !75
  %46 = load i32, ptr %5, align 4, !tbaa !8
  %47 = call ptr @Gia_ManObj(ptr noundef %45, i32 noundef %46)
  %48 = call i32 @Gia_ObjIsAnd(ptr noundef %47)
  %49 = icmp ne i32 %48, 0
  br i1 %49, label %50, label %53

50:                                               ; preds = %44
  %51 = load ptr, ptr %2, align 8, !tbaa !43
  %52 = load i32, ptr %5, align 4, !tbaa !8
  call void @Mf_ManOptimizationOne(ptr noundef %51, i32 noundef %52)
  br label %53

53:                                               ; preds = %50, %44, %40, %37
  br label %54

54:                                               ; preds = %53
  %55 = load i32, ptr %5, align 4, !tbaa !8
  %56 = add nsw i32 %55, 1
  store i32 %56, ptr %5, align 4, !tbaa !8
  br label %22, !llvm.loop !269

57:                                               ; preds = %35
  %58 = call i32 (ptr, ...) @printf(ptr noundef @.str.52)
  %59 = load ptr, ptr %4, align 8, !tbaa !75
  call void @Gia_ManStaticFanoutStop(ptr noundef %59)
  %60 = load ptr, ptr %4, align 8, !tbaa !75
  %61 = getelementptr inbounds nuw %struct.Gia_Man_t_, ptr %60, i32 0, i32 37
  call void @Vec_IntFreeP(ptr noundef %61)
  call void @llvm.lifetime.end.p0(i64 4, ptr %7) #14
  call void @llvm.lifetime.end.p0(i64 4, ptr %6) #14
  call void @llvm.lifetime.end.p0(i64 4, ptr %5) #14
  call void @llvm.lifetime.end.p0(i64 8, ptr %4) #14
  call void @llvm.lifetime.end.p0(i64 4, ptr %3) #14
  ret void
}