; Function Attrs: nounwind uwtable
define void @Mf_ManOptimization(ptr noundef captures(none) %0) local_unnamed_addr #0 {
  %2 = load ptr, ptr %0, align 8, !tbaa !131
  %3 = tail call i32 @Mf_ManMappingFromMapping(ptr noundef nonnull %0)
  %4 = tail call i32 @Gia_ManLevelNum(ptr noundef %2) #29
  tail call void @Gia_ManStaticMappingFanoutStart(ptr noundef %2, ptr noundef null) #29
  %5 = getelementptr inbounds nuw i8, ptr %2, i64 248
  %6 = load ptr, ptr %5, align 8, !tbaa !282
  tail call void @Mf_ManPrintFanoutProfile(ptr noundef nonnull %0, ptr noundef %6)
  %7 = tail call i32 (ptr, ...) @printf(ptr noundef nonnull dereferenceable(1) @.str.51, i32 noundef %3)
  %8 = load ptr, ptr %5, align 8, !tbaa !282
  %9 = getelementptr i8, ptr %8, i64 4
  %.val26 = load i32, ptr %9, align 4, !tbaa !27
  %10 = icmp sgt i32 %.val26, 0
  br i1 %10, label %.lr.ph, label %.critedge

.lr.ph:                                           ; preds = %1
  %11 = getelementptr i8, ptr %2, i64 32
  br label %12

12:                                               ; preds = %.lr.ph, %25
  %13 = phi ptr [ %8, %.lr.ph ], [ %26, %25 ]
  %indvars.iv = phi i64 [ 0, %.lr.ph ], [ %indvars.iv.next, %25 ]
  %14 = getelementptr i8, ptr %13, i64 8
  %.val21 = load ptr, ptr %14, align 8, !tbaa !26
  %15 = getelementptr inbounds nuw i32, ptr %.val21, i64 %indvars.iv
  %16 = load i32, ptr %15, align 4, !tbaa !12
  %17 = and i32 %16, -2
  %or.cond = icmp eq i32 %17, 2
  br i1 %or.cond, label %18, label %25

18:                                               ; preds = %12
  %.val22 = load ptr, ptr %11, align 8, !tbaa !78
  %19 = getelementptr inbounds nuw %struct.Gia_Obj_t_, ptr %.val22, i64 %indvars.iv
  %.val23 = load i64, ptr %19, align 4
  %20 = and i64 %.val23, 2147483648
  %.not.i = icmp ne i64 %20, 0
  %21 = and i64 %.val23, 536870911
  %22 = icmp eq i64 %21, 536870911
  %narrow.i.not = or i1 %.not.i, %22
  br i1 %narrow.i.not, label %25, label %23

23:                                               ; preds = %18
  %24 = trunc nuw nsw i64 %indvars.iv to i32
  tail call void @Mf_ManOptimizationOne(ptr noundef nonnull %0, i32 noundef %24)
  %.pre = load ptr, ptr %5, align 8, !tbaa !282
  br label %25

25:                                               ; preds = %12, %18, %23
  %26 = phi ptr [ %13, %12 ], [ %13, %18 ], [ %.pre, %23 ]
  %indvars.iv.next = add nuw nsw i64 %indvars.iv, 1
  %27 = getelementptr i8, ptr %26, i64 4
  %.val = load i32, ptr %27, align 4, !tbaa !27
  %28 = sext i32 %.val to i64
  %29 = icmp slt i64 %indvars.iv.next, %28
  br i1 %29, label %12, label %.critedge, !llvm.loop !291

.critedge:                                        ; preds = %25, %1
  %puts = tail call i32 @puts(ptr nonnull dereferenceable(1) @str.1)
  tail call void @Gia_ManStaticFanoutStop(ptr noundef nonnull %2) #29
  %30 = getelementptr inbounds nuw i8, ptr %2, i64 264
  %31 = load ptr, ptr %30, align 8, !tbaa !39
  %32 = icmp eq ptr %31, null
  br i1 %32, label %Vec_IntFreeP.exit, label %33

33:                                               ; preds = %.critedge
  %34 = getelementptr inbounds nuw i8, ptr %31, i64 8
  %35 = load ptr, ptr %34, align 8, !tbaa !26
  %.not.i24 = icmp eq ptr %35, null
  br i1 %.not.i24, label %38, label %.thread.i

.thread.i:                                        ; preds = %33
  tail call void @free(ptr noundef nonnull %35) #29
  %36 = load ptr, ptr %30, align 8, !tbaa !39
  %37 = getelementptr inbounds nuw i8, ptr %36, i64 8
  store ptr null, ptr %37, align 8, !tbaa !26
  br label %38

38:                                               ; preds = %.thread.i, %33
  %39 = phi ptr [ %36, %.thread.i ], [ %31, %33 ]
  tail call void @free(ptr noundef nonnull %39) #29
  store ptr null, ptr %30, align 8, !tbaa !39
  br label %Vec_IntFreeP.exit

Vec_IntFreeP.exit:                                ; preds = %.critedge, %38
  ret void
}